target datalayout = "e-m:e-p270:32:32-p271:32:32-p272:64:64-i64:64-i128:128-f80:128-n8:16:32:64-S128"
target triple = "x86_64-pc-linux-gnu"

%struct.stbi_io_callbacks = type { ptr, ptr, ptr }
%struct.stbi__context = type { i32, i32, i32, i32, %struct.stbi_io_callbacks, ptr, i32, i32, [128 x i8], i32, ptr, ptr, ptr, ptr }
%struct.stbi__jpeg = type { ptr, [4 x %struct.stbi__huffman], [4 x %struct.stbi__huffman], [4 x [64 x i16]], [4 x [512 x i16]], i32, i32, i32, i32, i32, i32, [4 x %struct.anon], i32, i32, i8, i32, i32, i32, i32, i32, i32, i32, i32, i32, i32, i32, [4 x i32], i32, i32, ptr, ptr, ptr }
%struct.stbi__huffman = type { [512 x i8], [256 x i16], [256 x i8], [257 x i8], [18 x i32], [17 x i32] }
%struct.anon = type { i32, i32, i32, i32, i32, i32, i32, i32, i32, i32, i32, ptr, ptr, ptr, ptr, ptr, i32, i32 }

; Function Attrs: nounwind uwtable
define i32 @stbi__free_jpeg_components(ptr noundef %0, i32 noundef %1, i32 noundef %2) #0 {
  %4 = alloca ptr, align 8
  %5 = alloca i32, align 4
  %6 = alloca i32, align 4
  %7 = alloca i32, align 4
  store ptr %0, ptr %4, align 8, !tbaa !3
  store i32 %1, ptr %5, align 4, !tbaa !9
  store i32 %2, ptr %6, align 4, !tbaa !9
  call void @llvm.lifetime.start.p0(i64 4, ptr %7) #13
  store i32 0, ptr %7, align 4, !tbaa !9
  br label %8

8:                                                ; preds = %94, %3
  %9 = load i32, ptr %7, align 4, !tbaa !9
  %10 = load i32, ptr %5, align 4, !tbaa !9
  %11 = icmp slt i32 %9, %10
  br i1 %11, label %12, label %97

12:                                               ; preds = %8
  %13 = load ptr, ptr %4, align 8, !tbaa !3
  %14 = getelementptr inbounds nuw %struct.stbi__jpeg, ptr %13, i32 0, i32 11
  %15 = load i32, ptr %7, align 4, !tbaa !9
  %16 = sext i32 %15 to i64
  %17 = getelementptr inbounds [4 x %struct.anon], ptr %14, i64 0, i64 %16
  %18 = getelementptr inbounds nuw %struct.anon, ptr %17, i32 0, i32 12
  %19 = load ptr, ptr %18, align 8, !tbaa !224
  %20 = icmp ne ptr %19, null
  br i1 %20, label %21, label %41

21:                                               ; preds = %12
  %22 = load ptr, ptr %4, align 8, !tbaa !3
  %23 = getelementptr inbounds nuw %struct.stbi__jpeg, ptr %22, i32 0, i32 11
  %24 = load i32, ptr %7, align 4, !tbaa !9
  %25 = sext i32 %24 to i64
  %26 = getelementptr inbounds [4 x %struct.anon], ptr %23, i64 0, i64 %25
  %27 = getelementptr inbounds nuw %struct.anon, ptr %26, i32 0, i32 12
  %28 = load ptr, ptr %27, align 8, !tbaa !224
  call void @free(ptr noundef %28) #13
  %29 = load ptr, ptr %4, align 8, !tbaa !3
  %30 = getelementptr inbounds nuw %struct.stbi__jpeg, ptr %29, i32 0, i32 11
  %31 = load i32, ptr %7, align 4, !tbaa !9
  %32 = sext i32 %31 to i64
  %33 = getelementptr inbounds [4 x %struct.anon], ptr %30, i64 0, i64 %32
  %34 = getelementptr inbounds nuw %struct.anon, ptr %33, i32 0, i32 12
  store ptr null, ptr %34, align 8, !tbaa !224
  %35 = load ptr, ptr %4, align 8, !tbaa !3
  %36 = getelementptr inbounds nuw %struct.stbi__jpeg, ptr %35, i32 0, i32 11
  %37 = load i32, ptr %7, align 4, !tbaa !9
  %38 = sext i32 %37 to i64
  %39 = getelementptr inbounds [4 x %struct.anon], ptr %36, i64 0, i64 %38
  %40 = getelementptr inbounds nuw %struct.anon, ptr %39, i32 0, i32 11
  store ptr null, ptr %40, align 8, !tbaa !186
  br label %41

41:                                               ; preds = %21, %12
  %42 = load ptr, ptr %4, align 8, !tbaa !3
  %43 = getelementptr inbounds nuw %struct.stbi__jpeg, ptr %42, i32 0, i32 11
  %44 = load i32, ptr %7, align 4, !tbaa !9
  %45 = sext i32 %44 to i64
  %46 = getelementptr inbounds [4 x %struct.anon], ptr %43, i64 0, i64 %45
  %47 = getelementptr inbounds nuw %struct.anon, ptr %46, i32 0, i32 13
  %48 = load ptr, ptr %47, align 8, !tbaa !225
  %49 = icmp ne ptr %48, null
  br i1 %49, label %50, label %70

50:                                               ; preds = %41
  %51 = load ptr, ptr %4, align 8, !tbaa !3
  %52 = getelementptr inbounds nuw %struct.stbi__jpeg, ptr %51, i32 0, i32 11
  %53 = load i32, ptr %7, align 4, !tbaa !9
  %54 = sext i32 %53 to i64
  %55 = getelementptr inbounds [4 x %struct.anon], ptr %52, i64 0, i64 %54
  %56 = getelementptr inbounds nuw %struct.anon, ptr %55, i32 0, i32 13
  %57 = load ptr, ptr %56, align 8, !tbaa !225
  call void @free(ptr noundef %57) #13
  %58 = load ptr, ptr %4, align 8, !tbaa !3
  %59 = getelementptr inbounds nuw %struct.stbi__jpeg, ptr %58, i32 0, i32 11
  %60 = load i32, ptr %7, align 4, !tbaa !9
  %61 = sext i32 %60 to i64
  %62 = getelementptr inbounds [4 x %struct.anon], ptr %59, i64 0, i64 %61
  %63 = getelementptr inbounds nuw %struct.anon, ptr %62, i32 0, i32 13
  store ptr null, ptr %63, align 8, !tbaa !225
  %64 = load ptr, ptr %4, align 8, !tbaa !3
  %65 = getelementptr inbounds nuw %struct.stbi__jpeg, ptr %64, i32 0, i32 11
  %66 = load i32, ptr %7, align 4, !tbaa !9
  %67 = sext i32 %66 to i64
  %68 = getelementptr inbounds [4 x %struct.anon], ptr %65, i64 0, i64 %67
  %69 = getelementptr inbounds nuw %struct.anon, ptr %68, i32 0, i32 15
  store ptr null, ptr %69, align 8, !tbaa !199
  br label %70

70:                                               ; preds = %50, %41
  %71 = load ptr, ptr %4, align 8, !tbaa !3
  %72 = getelementptr inbounds nuw %struct.stbi__jpeg, ptr %71, i32 0, i32 11
  %73 = load i32, ptr %7, align 4, !tbaa !9
  %74 = sext i32 %73 to i64
  %75 = getelementptr inbounds [4 x %struct.anon], ptr %72, i64 0, i64 %74
  %76 = getelementptr inbounds nuw %struct.anon, ptr %75, i32 0, i32 14
  %77 = load ptr, ptr %76, align 8, !tbaa !226
  %78 = icmp ne ptr %77, null
  br i1 %78, label %79, label %93

79:                                               ; preds = %70
  %80 = load ptr, ptr %4, align 8, !tbaa !3
  %81 = getelementptr inbounds nuw %struct.stbi__jpeg, ptr %80, i32 0, i32 11
  %82 = load i32, ptr %7, align 4, !tbaa !9
  %83 = sext i32 %82 to i64
  %84 = getelementptr inbounds [4 x %struct.anon], ptr %81, i64 0, i64 %83
  %85 = getelementptr inbounds nuw %struct.anon, ptr %84, i32 0, i32 14
  %86 = load ptr, ptr %85, align 8, !tbaa !226
  call void @free(ptr noundef %86) #13
  %87 = load ptr, ptr %4, align 8, !tbaa !3
  %88 = getelementptr inbounds nuw %struct.stbi__jpeg, ptr %87, i32 0, i32 11
  %89 = load i32, ptr %7, align 4, !tbaa !9
  %90 = sext i32 %89 to i64
  %91 = getelementptr inbounds [4 x %struct.anon], ptr %88, i64 0, i64 %90
  %92 = getelementptr inbounds nuw %struct.anon, ptr %91, i32 0, i32 14
  store ptr null, ptr %92, align 8, !tbaa !226
  br label %93

93:                                               ; preds = %79, %70
  br label %94

94:                                               ; preds = %93
  %95 = load i32, ptr %7, align 4, !tbaa !9
  %96 = add nsw i32 %95, 1
  store i32 %96, ptr %7, align 4, !tbaa !9
  br label %8, !llvm.loop !227

97:                                               ; preds = %8
  %98 = load i32, ptr %6, align 4, !tbaa !9
  call void @llvm.lifetime.end.p0(i64 4, ptr %7) #13
  ret i32 %98
}

; Function Attrs: nounwind uwtable
define void @stbi__cleanup_jpeg(ptr noundef %0) #0 {
  %2 = alloca ptr, align 8
  store ptr %0, ptr %2, align 8, !tbaa !3
  %3 = load ptr, ptr %2, align 8, !tbaa !3
  %4 = load ptr, ptr %2, align 8, !tbaa !3
  %5 = getelementptr inbounds nuw %struct.stbi__jpeg, ptr %4, i32 0, i32 0
  %6 = load ptr, ptr %5, align 8, !tbaa !86
  %7 = getelementptr inbounds nuw %struct.stbi__context, ptr %6, i32 0, i32 2
  %8 = load i32, ptr %7, align 8, !tbaa !50
  %9 = call i32 @stbi__free_jpeg_components(ptr noundef %3, i32 noundef %8, i32 noundef 0)
  ret void
}