; Function Attrs: nounwind uwtable
define void @stbi__cleanup_jpeg(ptr noundef captures(none) %0) local_unnamed_addr #2 {
  %2 = load ptr, ptr %0, align 8, !tbaa !77
  %3 = getelementptr inbounds nuw i8, ptr %2, i64 8
  %4 = load i32, ptr %3, align 8, !tbaa !50
  %5 = icmp sgt i32 %4, 0
  br i1 %5, label %.lr.ph.i, label %stbi__free_jpeg_components.exit

.lr.ph.i:                                         ; preds = %1
  %6 = getelementptr inbounds nuw i8, ptr %0, i64 18080
  %wide.trip.count.i = zext nneg i32 %4 to i64
  br label %7

7:                                                ; preds = %22, %.lr.ph.i
  %indvars.iv.i = phi i64 [ 0, %.lr.ph.i ], [ %indvars.iv.next.i, %22 ]
  %8 = getelementptr inbounds nuw [4 x %struct.anon], ptr %6, i64 0, i64 %indvars.iv.i
  %9 = getelementptr inbounds nuw i8, ptr %8, i64 56
  %10 = load ptr, ptr %9, align 8, !tbaa !217
  %.not.i = icmp eq ptr %10, null
  br i1 %.not.i, label %13, label %11

11:                                               ; preds = %7
  tail call void @free(ptr noundef nonnull %10) #37
  %12 = getelementptr inbounds nuw i8, ptr %8, i64 48
  tail call void @llvm.memset.p0.i64(ptr noundef nonnull align 8 dereferenceable(16) %12, i8 0, i64 16, i1 false)
  br label %13

13:                                               ; preds = %11, %7
  %14 = getelementptr inbounds nuw i8, ptr %8, i64 64
  %15 = load ptr, ptr %14, align 8, !tbaa !218
  %.not28.i = icmp eq ptr %15, null
  br i1 %.not28.i, label %18, label %16

16:                                               ; preds = %13
  tail call void @free(ptr noundef nonnull %15) #37
  store ptr null, ptr %14, align 8, !tbaa !218
  %17 = getelementptr inbounds nuw i8, ptr %8, i64 80
  store ptr null, ptr %17, align 8, !tbaa !193
  br label %18

18:                                               ; preds = %16, %13
  %19 = getelementptr inbounds nuw i8, ptr %8, i64 72
  %20 = load ptr, ptr %19, align 8, !tbaa !219
  %.not29.i = icmp eq ptr %20, null
  br i1 %.not29.i, label %22, label %21

21:                                               ; preds = %18
  tail call void @free(ptr noundef nonnull %20) #37
  store ptr null, ptr %19, align 8, !tbaa !219
  br label %22

22:                                               ; preds = %21, %18
  %indvars.iv.next.i = add nuw nsw i64 %indvars.iv.i, 1
  %exitcond.not.i = icmp eq i64 %indvars.iv.next.i, %wide.trip.count.i
  br i1 %exitcond.not.i, label %stbi__free_jpeg_components.exit, label %7, !llvm.loop !220

stbi__free_jpeg_components.exit:                  ; preds = %22, %1
  ret void
}